; generated by Component: ARM Compiler 5.06 update 4 (build 422) Tool: ArmCC [4d3604]
; commandline ArmCC [--c99 --list --split_sections --debug -c --asm --interleave -o.\bin\sric.o --asm_dir=.\list\ --list_dir=.\list\ --depend=.\bin\sric.d --cpu=Cortex-M3 --apcs=interwork -O3 -Otime --diag_suppress=9931 -I..\..\App -I..\..\App\Algorithm -I..\..\App\Algorithm\Baseline -I..\..\App\Algorithm\Coord -I..\..\App\Algorithm\Label -I..\..\App\Algorithm\Noise -I..\..\Env -I..\..\Hal -I..\..\Hal\system -I..\..\Hal\system\CMSIS -I..\..\Hal\gpio -I..\..\Hal\i2c -I..\..\Hal\pwmdrv -I..\..\Hal\timer -I..\..\Hal\wdgt -I..\..\Hal\spi -I..\..\Hal\dspA -I..\..\Hal\dspB -I..\..\Hal\scrb -I..\..\Hal\usb -I..\..\Hal\usb\FWOTG210_F000 -I..\..\Hal\usb\FWOTG210_F000\OTG_peripheral -I..\..\Hal\usb\FWOTG210_F000\OTG_peripheral_Config -I..\..\Hal\gdma -I..\..\Hal\flitf -I..\..\Module -I..\..\Module\SRIC -I..\..\Protocol -I..\..\Tool_BinCvt\BinToolApp\src -I..\..\Boot -I..\..\Parameter -I..\..\Hal\dbgserial -I..\..\Hal\tlvds -I..\..\Tuning_process -I.\RTE\_MFTP_FPGA -IC:\Keil_v5\ARM\PACK\ARM\CMSIS\5.0.1\Device\ARM\ARMCM3\Include -IC:\Keil_v5\ARM\CMSIS\Include -D__UVISION_VERSION=523 -DARMCM3 -D_USE_APP_80K_ --wchar32 --omf_browse=.\bin\sric.crf ..\..\Module\SRIC\sric.c]
                          THUMB

                          AREA ||i.SRIC_Initialize||, CODE, READONLY, ALIGN=2

                  SRIC_Initialize PROC
;;;77     
;;;78     void SRIC_Initialize(void)
000000  b510              PUSH     {r4,lr}
;;;79     {
;;;80     #if (USED_ROIC_DEF == ROIC_SW97500)
;;;81     	SW97500_Initialize();
000002  f7fffffe          BL       SW97500_Initialize
;;;82     	Fncp_ROIC_Reset = &SW97500_Reset;
000006  480b              LDR      r0,|L1.52|
000008  4909              LDR      r1,|L1.48|
;;;83     	Fncp_ROIC_RegisterInit = &SW97500_RegisterInit;
00000a  6001              STR      r1,[r0,#0]  ; Fncp_ROIC_Reset
00000c  490a              LDR      r1,|L1.56|
;;;84     	Fncp_ROIC_Run = &SW97500_Run;
00000e  6041              STR      r1,[r0,#4]  ; Fncp_ROIC_RegisterInit
000010  490a              LDR      r1,|L1.60|
;;;85     	Fncp_ROIC_S3Operation = &SW97500_SetS3OperationMode;
000012  6081              STR      r1,[r0,#8]  ; Fncp_ROIC_Run
000014  490a              LDR      r1,|L1.64|
;;;86     	Fncp_ROIC_IdleOperation = &SW97500_SetIdleOperationMode;
000016  6101              STR      r1,[r0,#0x10]  ; Fncp_ROIC_S3Operation
000018  490a              LDR      r1,|L1.68|
;;;87     	Fncp_ROIC_DiagTestOperation = &SW97500_SetDiagTestOperationMode;
00001a  6141              STR      r1,[r0,#0x14]  ; Fncp_ROIC_IdleOperation
00001c  490a              LDR      r1,|L1.72|
;;;88     	Fncp_ROIC_ActiveOperation = &SW97500_SetActiveOperationMode;
00001e  6201              STR      r1,[r0,#0x20]  ; Fncp_ROIC_DiagTestOperation
000020  490a              LDR      r1,|L1.76|
;;;89     	Fncp_ROIC_SetRuntimeChangeRegigster = &SW97500_SetRuntimeChangeRegister;
000022  6181              STR      r1,[r0,#0x18]  ; Fncp_ROIC_ActiveOperation
000024  490a              LDR      r1,|L1.80|
;;;90     #if USED_RUNTIME_LOCAL_TUNE_RAWDATA
;;;91     	Fncp_ROIC_RawDataLocalRuntimeCalibration = &SW97500_RawDataLocalRuntimeCalibration;
000026  61c1              STR      r1,[r0,#0x1c]  ; Fncp_ROIC_SetRuntimeChangeRegigster
000028  490a              LDR      r1,|L1.84|
00002a  6241              STR      r1,[r0,#0x24]  ; Fncp_ROIC_RawDataLocalRuntimeCalibration
;;;92     #endif /* USED_RUNTIME_LOCAL_TUNE_RAWDATA */
;;;93     #if USED_RAWDATA_TUNE_CALIBRATION
;;;94     	Fncp_ROIC_RawDataCalibration = &SW97500_RawDataCalibration;
;;;95     #endif /* USED_RAWDATA_TUNE_CALIBRATION */
;;;96     #elif (USED_ROIC_DEF == ROIC_SW98500)
;;;97     	SW98500_Initialize();
;;;98     	Fncp_ROIC_Reset = &SW98500_Reset;
;;;99     	Fncp_ROIC_RegisterInit = &SW98500_RegisterInit;
;;;100    	Fncp_ROIC_Run = &SW98500_Run;
;;;101    	Fncp_ROIC_SetLocalIndex = &SW98500_SetLocalIndex;
;;;102    	Fncp_ROIC_IdleOperation = &SW98500_SetIdleOperationMode;
;;;103    	Fncp_ROIC_ActiveOperation = &SW98500_SetActiveOperationMode;
;;;104    	Fncp_ROIC_SetRuntimeChangeRegigster = &SW98500_SetRuntimeChangeRegister;
;;;105    #if USED_RAWDATA_TUNE_CALIBRATION
;;;106    	Fncp_ROIC_RawDataCalibration = &SW98500_RawDataCalibration;
;;;107    #endif /* USED_RAWDATA_TUNE_CALIBRATION */
;;;108    #elif (USED_ROIC_DEF == ROIC_SW92502)
;;;109    	SW92502_Initialize();
;;;110    	Fncp_ROIC_Reset = &SW92502_Reset;
;;;111    	Fncp_ROIC_RegisterInit = &SW92502_RegisterInit;
;;;112    	Fncp_ROIC_Run = &SW92502_Run;
;;;113    	Fncp_ROIC_IdleOperation = &SW92502_SetIdleOperationMode;
;;;114    	Fncp_ROIC_ActiveOperation = &SW92502_SetActiveOperationMode;
;;;115    #elif (USED_ROIC_DEF == ROIC_SW92503)
;;;116    	SW92503_Initialize();
;;;117    	Fncp_ROIC_Reset = &SW92503_Reset;
;;;118    	Fncp_ROIC_RegisterInit = &SW92503_RegisterInit;
;;;119    	Fncp_ROIC_Run = &SW92503_Run;
;;;120    	Fncp_ROIC_SetLocalIndex = &SW92503_SetLocalIndex;
;;;121    	Fncp_ROIC_IdleOperation = &SW92503_SetIdleOperationMode;
;;;122    	Fncp_ROIC_ActiveOperation = &SW92503_SetActiveOperationMode;
;;;123    //	Fncp_ROIC_FingerPenFullModeChange = &SW92503_SetFingerPenFullModeChange;
;;;124    	Fncp_ROIC_SetRuntimeChangeRegigster = &SW92503_SetRuntimeChangeRegister;
;;;125    #if USED_RAWDATA_TUNE_CALIBRATION
;;;126    	Fncp_ROIC_RawDataCalibration = &SW92503_RawDataCalibration;
;;;127    #endif /* USED_RAWDATA_TUNE_CALIBRATION */
;;;128    #elif (USED_ROIC_DEF == ROIC_SW92503B)
;;;129    	SW92503B_Initialize();
;;;130    	Fncp_ROIC_Reset = &SW92503B_Reset;
;;;131    	Fncp_ROIC_RegisterInit = &SW92503B_RegisterInit;
;;;132    	Fncp_ROIC_Run = &SW92503B_Run;
;;;133    	Fncp_ROIC_SetLocalIndex = &SW92503B_SetLocalIndex;
;;;134    	Fncp_ROIC_IdleOperation = &SW92503B_SetIdleOperationMode;
;;;135    	Fncp_ROIC_ActiveOperation = &SW92503B_SetActiveOperationMode;
;;;136    //	Fncp_ROIC_FingerPenFullModeChange = &SW92503B_SetFingerPenFullModeChange;
;;;137    	Fncp_ROIC_SetRuntimeChangeRegigster = &SW92503B_SetRuntimeChangeRegister;
;;;138    	Fncp_ROIC_DiagTestOperation = &SW92503B_SetDiagTestOperationMode;
;;;139    #if USED_RAWDATA_TUNE_CALIBRATION
;;;140    	Fncp_ROIC_RawDataCalibration = &SW92503B_RawDataCalibration;
;;;141    #endif /* USED_RAWDATA_TUNE_CALIBRATION */
;;;142    #elif (USED_ROIC_DEF == ROIC_SW92503S)
;;;143    	SW92503S_Initialize();
;;;144    	Fncp_ROIC_Reset = &SW92503S_Reset;
;;;145    	Fncp_ROIC_RegisterInit = &SW92503S_RegisterInit;
;;;146    	Fncp_ROIC_Run = &SW92503S_Run;
;;;147    	Fncp_ROIC_SetLocalIndex = &SW92503S_SetLocalIndex;
;;;148    	Fncp_ROIC_IdleOperation = &SW92503S_SetIdleOperationMode;
;;;149    	Fncp_ROIC_ActiveOperation = &SW92503S_SetActiveOperationMode;
;;;150    //	Fncp_ROIC_FingerPenFullModeChange = &SW92503S_SetFingerPenFullModeChange;
;;;151    	Fncp_ROIC_SetRuntimeChangeRegigster = &SW92503S_SetRuntimeChangeRegister;
;;;152    	Fncp_ROIC_DiagTestOperation = &SW92503S_SetDiagTestOperationMode;
;;;153    #if USED_RAWDATA_TUNE_CALIBRATION
;;;154    	Fncp_ROIC_RawDataCalibration = &SW92503S_RawDataCalibration;
;;;155    #endif /* USED_RAWDATA_TUNE_CALIBRATION */
;;;156    #elif (USED_ROIC_DEF == ROIC_SWL92406)
;;;157    	SWL92406_Initialize();
;;;158    	Fncp_ROIC_Reset = &SWL92406_Reset;
;;;159    	Fncp_ROIC_RegisterInit = &SWL92406_RegisterInit;
;;;160    	Fncp_ROIC_Run = &SWL92406_Run;
;;;161    	Fncp_ROIC_SetLocalIndex = &SWL92406_SetLocalIndex;
;;;162    	Fncp_ROIC_IdleOperation = &SWL92406_SetIdleOperationMode;
;;;163    	Fncp_ROIC_ActiveOperation = &SWL92406_SetActiveOperationMode;
;;;164    	Fncp_ROIC_SetRuntimeChangeRegigster = &SWL92406_SetRuntimeChangeRegister;
;;;165    #elif (USED_ROIC_DEF == ROIC_SWL92407)
;;;166    	SWL92407_Initialize();
;;;167    	Fncp_ROIC_Reset = &SWL92407_Reset;
;;;168    	Fncp_ROIC_RegisterInit = &SWL92407_RegisterInit;
;;;169    	Fncp_ROIC_Run = &SWL92407_Run;
;;;170    #if USED_ADAPTIVE_LOCAL_SENSING
;;;171    	Fncp_ROIC_SetRoicIndex = &SWL92407_SetRoicIndex;
;;;172    #endif /* USED_ADAPTIVE_LOCAL_SENSING */
;;;173    	Fncp_ROIC_SetLocalIndex = &SWL92407_SetLocalIndex;
;;;174    	Fncp_ROIC_IdleOperation = &SWL92407_SetIdleOperationMode;
;;;175    	Fncp_ROIC_ActiveOperation = &SWL92407_SetActiveOperationMode;
;;;176    	Fncp_ROIC_SetRuntimeChangeRegigster = &SWL92407_SetRuntimeChangeRegister;
;;;177    #elif (USED_ROIC_DEF == ROIC_SW92505)
;;;178    	SW92505_Initialize();
;;;179    	Fncp_ROIC_Reset = &SW92505_Reset;
;;;180    	Fncp_ROIC_RegisterInit = &SW92505_RegisterInit;
;;;181    	Fncp_ROIC_Run = &SW92505_Run;
;;;182    	Fncp_ROIC_SetLocalIndex = &SW92505_SetLocalIndex;
;;;183    	Fncp_ROIC_IdleOperation = &SW92505_SetIdleOperationMode;
;;;184    	Fncp_ROIC_ActiveOperation = &SW92505_SetActiveOperationMode;
;;;185    //	Fncp_ROIC_FingerPenFullModeChange = &SW92503S_SetFingerPenFullModeChange;
;;;186    	Fncp_ROIC_SetRuntimeChangeRegigster = &SW92505_SetRuntimeChangeRegister;
;;;187    	Fncp_ROIC_DiagTestOperation = &SW92505_SetDiagTestOperationMode;
;;;188    #if USED_RAWDATA_TUNE_CALIBRATION
;;;189    	Fncp_ROIC_RawDataCalibration = &SW92505_RawDataCalibration;
;;;190    #endif /* USED_RAWDATA_TUNE_CALIBRATION */
;;;191    #endif /* (USED_ROIC_DEF == ROIC_SW97500) */
;;;192    }
00002c  bd10              POP      {r4,pc}
;;;193    
                          ENDP

00002e  0000              DCW      0x0000
                  |L1.48|
                          DCD      SW97500_Reset
                  |L1.52|
                          DCD      ||.data||
                  |L1.56|
                          DCD      SW97500_RegisterInit
                  |L1.60|
                          DCD      SW97500_Run
                  |L1.64|
                          DCD      SW97500_SetS3OperationMode
                  |L1.68|
                          DCD      SW97500_SetIdleOperationMode
                  |L1.72|
                          DCD      SW97500_SetDiagTestOperationMode
                  |L1.76|
                          DCD      SW97500_SetActiveOperationMode
                  |L1.80|
                          DCD      SW97500_SetRuntimeChangeRegister
                  |L1.84|
                          DCD      SW97500_RawDataLocalRuntimeCalibration

                          AREA ||i.SRIC_RawDataLocalRuntimeCalibration||, CODE, READONLY, ALIGN=2

                  SRIC_RawDataLocalRuntimeCalibration PROC
;;;285    #if USED_RUNTIME_LOCAL_TUNE_RAWDATA
;;;286    void SRIC_RawDataLocalRuntimeCalibration(void)
000000  4801              LDR      r0,|L2.8|
;;;287    {
;;;288    	Fncp_ROIC_RawDataLocalRuntimeCalibration();
000002  6a40              LDR      r0,[r0,#0x24]  ; Fncp_ROIC_RawDataLocalRuntimeCalibration
000004  4700              BX       r0
;;;289    }
;;;290    #endif /* USED_RUNTIME_LOCAL_TUNE_RAWDATA */
                          ENDP

000006  0000              DCW      0x0000
                  |L2.8|
                          DCD      ||.data||

                          AREA ||i.SRIC_RegisterInit||, CODE, READONLY, ALIGN=2

                  SRIC_RegisterInit PROC
;;;198    
;;;199    bool_t SRIC_RegisterInit(eSENSING_MODE_t eSensingMode)
000000  b570              PUSH     {r4-r6,lr}
;;;200    {
;;;201    	bool_t bReg = YES;
;;;202    	bReg = Fncp_ROIC_RegisterInit(eSensingMode);
000002  4c06              LDR      r4,|L3.28|
000004  4605              MOV      r5,r0                 ;200
000006  6861              LDR      r1,[r4,#4]  ; Fncp_ROIC_RegisterInit
000008  4788              BLX      r1
;;;203    #if USED_MNT_S3_MODE_FUNCTION
;;;204    	if(bReg && IS_S3_MODE(eSensingMode))
00000a  2800              CMP      r0,#0
00000c  bf14              ITE      NE
00000e  f4156f00          TSTNE    r5,#0x800
;;;205    	{
;;;206    		bReg = Fncp_ROIC_S3Operation();
;;;207    	}
;;;208    #endif /* USED_MNT_S3_MODE_FUNCTION */
;;;209    
;;;210    	return bReg;
;;;211    }
000012  bd70              POPEQ    {r4-r6,pc}
000014  6920              LDR      r0,[r4,#0x10]         ;206  ; Fncp_ROIC_S3Operation
000016  e8bd4070          POP      {r4-r6,lr}            ;206
00001a  4700              BX       r0                    ;206
;;;212    
                          ENDP

                  |L3.28|
                          DCD      ||.data||

                          AREA ||i.SRIC_Reset||, CODE, READONLY, ALIGN=2

                  SRIC_Reset PROC
;;;193    
;;;194    void SRIC_Reset(eSENSING_MODE_t eSensingMode)
000000  4901              LDR      r1,|L4.8|
;;;195    {
;;;196    	Fncp_ROIC_Reset(eSensingMode);
000002  6809              LDR      r1,[r1,#0]  ; Fncp_ROIC_Reset
000004  4708              BX       r1
;;;197    }
;;;198    
                          ENDP

000006  0000              DCW      0x0000
                  |L4.8|
                          DCD      ||.data||

                          AREA ||i.SRIC_Run||, CODE, READONLY, ALIGN=2

                  SRIC_Run PROC
;;;212    
;;;213    void SRIC_Run(uint8_t Enable)
000000  4901              LDR      r1,|L5.8|
;;;214    {
;;;215    	Fncp_ROIC_Run(Enable);
000002  6889              LDR      r1,[r1,#8]  ; Fncp_ROIC_Run
000004  4708              BX       r1
;;;216    }
;;;217    
                          ENDP

000006  0000              DCW      0x0000
                  |L5.8|
                          DCD      ||.data||

                          AREA ||i.SRIC_SetActiveOperationMode||, CODE, READONLY, ALIGN=2

                  SRIC_SetActiveOperationMode PROC
;;;241    
;;;242    void SRIC_SetActiveOperationMode(void)
000000  b510              PUSH     {r4,lr}
;;;243    {
;;;244    	MSPI_Set_TLPMODE();
000002  f7fffffe          BL       MSPI_Set_TLPMODE
;;;245    	Fncp_ROIC_ActiveOperation();
000006  4806              LDR      r0,|L6.32|
000008  6980              LDR      r0,[r0,#0x18]  ; Fncp_ROIC_ActiveOperation
00000a  4780              BLX      r0
;;;246    	MSPI_Set_AITMODE(HAL_GetSensingMode());
00000c  f7fffffe          BL       HAL_GetSensingMode
000010  f7fffffe          BL       MSPI_Set_AITMODE
;;;247    	MSPI->tSPISTART.ulBulk = MSPI_START_VAL;
000014  f04f2140          MOV      r1,#0x40004000
000018  200f              MOVS     r0,#0xf
00001a  6448              STR      r0,[r1,#0x44]
;;;248    }
00001c  bd10              POP      {r4,pc}
;;;249    
                          ENDP

00001e  0000              DCW      0x0000
                  |L6.32|
                          DCD      ||.data||

                          AREA ||i.SRIC_SetDiagTestOperationMode||, CODE, READONLY, ALIGN=2

                  SRIC_SetDiagTestOperationMode PROC
;;;249    
;;;250    void SRIC_SetDiagTestOperationMode(eDIAG_TEST_CHANGE_MODE_t TestMode)
000000  b510              PUSH     {r4,lr}
;;;251    {
000002  4604              MOV      r4,r0
;;;252    	MSPI_Set_TLPMODE();
000004  f7fffffe          BL       MSPI_Set_TLPMODE
;;;253    	Fncp_ROIC_DiagTestOperation(TestMode);
000008  4906              LDR      r1,|L7.36|
00000a  4620              MOV      r0,r4
00000c  6a09              LDR      r1,[r1,#0x20]  ; Fncp_ROIC_DiagTestOperation
00000e  4788              BLX      r1
;;;254    	MSPI_Set_AITMODE(HAL_GetSensingMode());
000010  f7fffffe          BL       HAL_GetSensingMode
000014  f7fffffe          BL       MSPI_Set_AITMODE
;;;255    	MSPI->tSPISTART.ulBulk = MSPI_START_VAL;
000018  f04f2140          MOV      r1,#0x40004000
00001c  200f              MOVS     r0,#0xf
00001e  6448              STR      r0,[r1,#0x44]
;;;256    }
000020  bd10              POP      {r4,pc}
;;;257    
                          ENDP

000022  0000              DCW      0x0000
                  |L7.36|
                          DCD      ||.data||

                          AREA ||i.SRIC_SetIdleOperationMode||, CODE, READONLY, ALIGN=2

                  SRIC_SetIdleOperationMode PROC
;;;233    
;;;234    void SRIC_SetIdleOperationMode(void)
000000  b510              PUSH     {r4,lr}
;;;235    {
;;;236    	MSPI_Set_TLPMODE();
000002  f7fffffe          BL       MSPI_Set_TLPMODE
;;;237    	Fncp_ROIC_IdleOperation();
000006  4806              LDR      r0,|L8.32|
000008  6940              LDR      r0,[r0,#0x14]  ; Fncp_ROIC_IdleOperation
00000a  4780              BLX      r0
;;;238    	MSPI_Set_AITMODE(HAL_GetSensingMode());
00000c  f7fffffe          BL       HAL_GetSensingMode
000010  f7fffffe          BL       MSPI_Set_AITMODE
;;;239    	MSPI->tSPISTART.ulBulk = MSPI_START_VAL;
000014  f04f2140          MOV      r1,#0x40004000
000018  200f              MOVS     r0,#0xf
00001a  6448              STR      r0,[r1,#0x44]
;;;240    }
00001c  bd10              POP      {r4,pc}
;;;241    
                          ENDP

00001e  0000              DCW      0x0000
                  |L8.32|
                          DCD      ||.data||

                          AREA ||i.SRIC_SetLocalIndex||, CODE, READONLY, ALIGN=2

                  SRIC_SetLocalIndex PROC
;;;226    
;;;227    void SRIC_SetLocalIndex(uint32_t ulIdx)
000000  b510              PUSH     {r4,lr}
;;;228    {
000002  4604              MOV      r4,r0
;;;229    	MSPI_Set_TLPMODE();
000004  f7fffffe          BL       MSPI_Set_TLPMODE
;;;230    	Fncp_ROIC_SetLocalIndex(ulIdx);
000008  4904              LDR      r1,|L9.28|
00000a  4620              MOV      r0,r4
00000c  68c9              LDR      r1,[r1,#0xc]  ; Fncp_ROIC_SetLocalIndex
00000e  4788              BLX      r1
;;;231    	MSPI_Set_AITMODE(HAL_GetSensingMode());
000010  f7fffffe          BL       HAL_GetSensingMode
000014  e8bd4010          POP      {r4,lr}
000018  f7ffbffe          B.W      MSPI_Set_AITMODE
;;;232    }
;;;233    
                          ENDP

                  |L9.28|
                          DCD      ||.data||

                          AREA ||i.SRIC_SetRuntimeChangeRegister||, CODE, READONLY, ALIGN=2

                  SRIC_SetRuntimeChangeRegister PROC
;;;265    
;;;266    void SRIC_SetRuntimeChangeRegister(eROIC_REG_SET_CHANGE_MODE_t eMode)
000000  b510              PUSH     {r4,lr}
;;;267    {
000002  4604              MOV      r4,r0
;;;268    	MSPI_Set_TLPMODE();
000004  f7fffffe          BL       MSPI_Set_TLPMODE
;;;269    	Fncp_ROIC_SetRuntimeChangeRegigster(eMode);
000008  4904              LDR      r1,|L10.28|
00000a  4620              MOV      r0,r4
00000c  69c9              LDR      r1,[r1,#0x1c]  ; Fncp_ROIC_SetRuntimeChangeRegigster
00000e  4788              BLX      r1
;;;270    #if USED_PEN_MODE_OPERATION
;;;271    #if (USED_MODULE_DEF == MODULE_DEF_L_1)
;;;272    	Fncp_ROIC_SetLocalIndex(sensingRowStart);
;;;273    #else /* (USED_MODULE_DEF == MODULE_DEF_L_1) */
;;;274    	if(eMode != ROIC_REG_SET_CHANGE_FINGER_PEN_FULL &&
;;;275    		eMode != ROIC_REG_SET_CHANGE_FINGER_PEN_LOCAL_IDLE)
;;;276    	{
;;;277    		Fncp_ROIC_SetLocalIndex(sensingRowStart);
;;;278    	}
;;;279    #endif /* (USED_MODULE_DEF == MODULE_DEF_L_1) */
;;;280    #endif /* USED_PEN_MODE_OPERATION */
;;;281    
;;;282    	MSPI_Set_AITMODE(HAL_GetSensingMode());
000010  f7fffffe          BL       HAL_GetSensingMode
000014  e8bd4010          POP      {r4,lr}
000018  f7ffbffe          B.W      MSPI_Set_AITMODE
;;;283    }
;;;284    
                          ENDP

                  |L10.28|
                          DCD      ||.data||

                          AREA ||.data||, DATA, ALIGN=2

                  Fncp_ROIC_Reset
                          DCD      0x00000000
                  Fncp_ROIC_RegisterInit
                          DCD      0x00000000
                  Fncp_ROIC_Run
                          DCD      0x00000000
                  Fncp_ROIC_SetLocalIndex
                          DCD      0x00000000
                  Fncp_ROIC_S3Operation
                          DCD      0x00000000
                  Fncp_ROIC_IdleOperation
                          DCD      0x00000000
                  Fncp_ROIC_ActiveOperation
                          DCD      0x00000000
                  Fncp_ROIC_SetRuntimeChangeRegigster
                          DCD      0x00000000
                  Fncp_ROIC_DiagTestOperation
                          DCD      0x00000000
                  Fncp_ROIC_RawDataLocalRuntimeCalibration
                          DCD      0x00000000

;*** Start embedded assembler ***

#line 1 "..\\..\\Module\\SRIC\\sric.c"
	AREA ||.rev16_text||, CODE
	THUMB
	EXPORT |__asm___6_sric_c_6c2bd019____REV16|
#line 388 "..\\..\\Hal\\system\\CMSIS\\cmsis_armcc.h"
|__asm___6_sric_c_6c2bd019____REV16| PROC
#line 389

 rev16 r0, r0
 bx lr
	ENDP
	AREA ||.revsh_text||, CODE
	THUMB
	EXPORT |__asm___6_sric_c_6c2bd019____REVSH|
#line 402
|__asm___6_sric_c_6c2bd019____REVSH| PROC
#line 403

 revsh r0, r0
 bx lr
	ENDP
	AREA ||.rrx_text||, CODE
	THUMB
	EXPORT |__asm___6_sric_c_6c2bd019____RRX|
#line 587
|__asm___6_sric_c_6c2bd019____RRX| PROC
#line 588

 rrx r0, r0
 bx lr
	ENDP

;*** End   embedded assembler ***
